; Function Attrs: mustprogress nounwind uwtable
define void @_ZN13gmx_moltype_tD2Ev(ptr noundef nonnull align 8 dereferenceable(2408) %0) unnamed_addr #11 align 2 personality ptr @__gxx_personality_v0 {
  %2 = getelementptr inbounds nuw i8, ptr %0, i64 8
  invoke void @_Z9done_atomP7t_atoms(ptr noundef nonnull %2)
          to label %3 unwind label %28

3:                                                ; preds = %1
  %4 = getelementptr inbounds nuw i8, ptr %0, i64 2360
  %5 = getelementptr inbounds nuw i8, ptr %0, i64 2384
  %6 = load ptr, ptr %5, align 8, !tbaa !28
  %.not.i.i.i.i = icmp eq ptr %6, null
  br i1 %.not.i.i.i.i, label %_ZNSt6vectorIiSaIiEED2Ev.exit.i, label %7

7:                                                ; preds = %3
  %8 = getelementptr inbounds nuw i8, ptr %0, i64 2400
  %9 = load ptr, ptr %8, align 8, !tbaa !29
  %10 = ptrtoint ptr %9 to i64
  %11 = ptrtoint ptr %6 to i64
  %12 = sub i64 %10, %11
  tail call void @_ZdlPvm(ptr noundef nonnull %6, i64 noundef %12) #21
  br label %_ZNSt6vectorIiSaIiEED2Ev.exit.i

_ZNSt6vectorIiSaIiEED2Ev.exit.i:                  ; preds = %7, %3
  %13 = load ptr, ptr %4, align 8, !tbaa !28
  %.not.i.i.i1.i = icmp eq ptr %13, null
  br i1 %.not.i.i.i1.i, label %_ZN3gmx11ListOfListsIiED2Ev.exit, label %14

14:                                               ; preds = %_ZNSt6vectorIiSaIiEED2Ev.exit.i
  %15 = getelementptr inbounds nuw i8, ptr %0, i64 2376
  %16 = load ptr, ptr %15, align 8, !tbaa !29
  %17 = ptrtoint ptr %16 to i64
  %18 = ptrtoint ptr %13 to i64
  %19 = sub i64 %17, %18
  tail call void @_ZdlPvm(ptr noundef nonnull %13, i64 noundef %19) #21
  br label %_ZN3gmx11ListOfListsIiED2Ev.exit

_ZN3gmx11ListOfListsIiED2Ev.exit:                 ; preds = %_ZNSt6vectorIiSaIiEED2Ev.exit.i, %14
  %invariant.gep = getelementptr i8, ptr %0, i64 -8
  br label %20

20:                                               ; preds = %_ZN15InteractionListD2Ev.exit.i, %_ZN3gmx11ListOfListsIiED2Ev.exit
  %.idx = phi i64 [ 2360, %_ZN3gmx11ListOfListsIiED2Ev.exit ], [ %.add, %_ZN15InteractionListD2Ev.exit.i ]
  %.add = add nsw i64 %.idx, -24
  %.ptr1 = getelementptr inbounds i8, ptr %0, i64 %.add
  %21 = load ptr, ptr %.ptr1, align 8, !tbaa !28
  %.not.i.i.i.i.i = icmp eq ptr %21, null
  br i1 %.not.i.i.i.i.i, label %_ZN15InteractionListD2Ev.exit.i, label %22

22:                                               ; preds = %20
  %gep = getelementptr i8, ptr %invariant.gep, i64 %.idx
  %23 = load ptr, ptr %gep, align 8, !tbaa !29
  %24 = ptrtoint ptr %23 to i64
  %25 = ptrtoint ptr %21 to i64
  %26 = sub i64 %24, %25
  tail call void @_ZdlPvm(ptr noundef nonnull %21, i64 noundef %26) #21
  br label %_ZN15InteractionListD2Ev.exit.i

_ZN15InteractionListD2Ev.exit.i:                  ; preds = %22, %20
  %27 = icmp eq i64 %.add, 80
  br i1 %27, label %_ZNSt5arrayI15InteractionListLm95EED2Ev.exit, label %20

_ZNSt5arrayI15InteractionListLm95EED2Ev.exit:     ; preds = %_ZN15InteractionListD2Ev.exit.i
  ret void

28:                                               ; preds = %1
  %29 = landingpad { ptr, i32 }
          catch ptr null
  %30 = extractvalue { ptr, i32 } %29, 0
  tail call void @__clang_call_terminate(ptr %30) #22
  unreachable
}